target datalayout = "e-m:e-p270:32:32-p271:32:32-p272:64:64-i64:64-i128:128-f80:128-n8:16:32:64-S128"
target triple = "x86_64-pc-linux-gnu"

@chroma_location_names = internal constant [7 x ptr] [ptr @.str.320, ptr @.str.321, ptr @.str.322, ptr @.str.323, ptr @.str.324, ptr @.str.325, ptr @.str.326], align 16

; Function Attrs: nounwind uwtable
define ptr @av_chroma_location_name(i32 noundef %0) #0 {
  %2 = alloca i32, align 4
  store i32 %0, ptr %2, align 4, !tbaa !15
  %3 = load i32, ptr %2, align 4, !tbaa !15
  %4 = icmp ult i32 %3, 7
  br i1 %4, label %5, label %10

5:                                                ; preds = %1
  %6 = load i32, ptr %2, align 4, !tbaa !15
  %7 = zext i32 %6 to i64
  %8 = getelementptr inbounds nuw [7 x ptr], ptr @chroma_location_names, i64 0, i64 %7
  %9 = load ptr, ptr %8, align 8, !tbaa !29
  br label %11

10:                                               ; preds = %1
  br label %11

11:                                               ; preds = %10, %5
  %12 = phi ptr [ %9, %5 ], [ null, %10 ]
  ret ptr %12
}